target datalayout = "e-m:e-p270:32:32-p271:32:32-p272:64:64-i64:64-i128:128-f80:128-n8:16:32:64-S128"
target triple = "x86_64-pc-linux-gnu"

%struct.avifCodecDecodeInput = type { %struct.avifDecodeSampleArray, i32, i32 }
%struct.avifDecodeSampleArray = type { ptr, i32, i32, i32 }
%struct.avifDecodeSample = type { %struct.avifROData, i32, i32, i32, i64, i64, i8, i32 }
%struct.avifROData = type { ptr, i64 }
%struct.avifDecoderData = type { ptr, %struct.avifTrackArray, %struct.avifTileArray, [2 x %struct.avifTileInfo], i32, ptr, ptr, [4 x i8], ptr, ptr, i32 }
%struct.avifTrackArray = type { ptr, i32, i32, i32 }
%struct.avifTileArray = type { ptr, i32, i32, i32 }
%struct.avifTileInfo = type { i32, i32, i32, %struct.avifImageGrid }
%struct.avifImageGrid = type { i32, i32, i32, i32 }
%struct.avifTile = type { ptr, i32, ptr, ptr, i32, i32, i8 }

; Function Attrs: nounwind uwtable
define hidden void @avifCodecDecodeInputDestroy(ptr noundef %0) #0 {
  %2 = alloca ptr, align 8
  %3 = alloca i32, align 4
  %4 = alloca ptr, align 8
  store ptr %0, ptr %2, align 8
  store i32 0, ptr %3, align 4
  br label %5

5:                                                ; preds = %28, %1
  %6 = load i32, ptr %3, align 4
  %7 = load ptr, ptr %2, align 8
  %8 = getelementptr inbounds nuw %struct.avifCodecDecodeInput, ptr %7, i32 0, i32 0
  %9 = getelementptr inbounds nuw %struct.avifDecodeSampleArray, ptr %8, i32 0, i32 2
  %10 = load i32, ptr %9, align 4
  %11 = icmp ult i32 %6, %10
  br i1 %11, label %12, label %31

12:                                               ; preds = %5
  %13 = load ptr, ptr %2, align 8
  %14 = getelementptr inbounds nuw %struct.avifCodecDecodeInput, ptr %13, i32 0, i32 0
  %15 = getelementptr inbounds nuw %struct.avifDecodeSampleArray, ptr %14, i32 0, i32 0
  %16 = load ptr, ptr %15, align 8
  %17 = load i32, ptr %3, align 4
  %18 = zext i32 %17 to i64
  %19 = getelementptr inbounds %struct.avifDecodeSample, ptr %16, i64 %18
  store ptr %19, ptr %4, align 8
  %20 = load ptr, ptr %4, align 8
  %21 = getelementptr inbounds nuw %struct.avifDecodeSample, ptr %20, i32 0, i32 1
  %22 = load i32, ptr %21, align 8
  %23 = icmp ne i32 %22, 0
  br i1 %23, label %24, label %27

24:                                               ; preds = %12
  %25 = load ptr, ptr %4, align 8
  %26 = getelementptr inbounds nuw %struct.avifDecodeSample, ptr %25, i32 0, i32 0
  call void @avifRWDataFree(ptr noundef %26)
  br label %27

27:                                               ; preds = %24, %12
  br label %28

28:                                               ; preds = %27
  %29 = load i32, ptr %3, align 4
  %30 = add i32 %29, 1
  store i32 %30, ptr %3, align 4
  br label %5, !llvm.loop !4

31:                                               ; preds = %5
  %32 = load ptr, ptr %2, align 8
  %33 = getelementptr inbounds nuw %struct.avifCodecDecodeInput, ptr %32, i32 0, i32 0
  call void @avifArrayDestroy(ptr noundef %33)
  %34 = load ptr, ptr %2, align 8
  call void @avifFree(ptr noundef %34)
  ret void
}

; Function Attrs: nounwind uwtable
define hidden ptr @avifCodecDecodeInputCreate() #0 {
  %1 = alloca ptr, align 8
  %2 = alloca ptr, align 8
  %3 = call ptr @avifAlloc(i64 noundef 32)
  store ptr %3, ptr %2, align 8
  %4 = load ptr, ptr %2, align 8
  %5 = icmp eq ptr %4, null
  br i1 %5, label %6, label %7

6:                                                ; preds = %0
  store ptr null, ptr %1, align 8
  br label %17

7:                                                ; preds = %0
  %8 = load ptr, ptr %2, align 8
  call void @llvm.memset.p0.i64(ptr align 8 %8, i8 0, i64 32, i1 false)
  %9 = load ptr, ptr %2, align 8
  %10 = getelementptr inbounds nuw %struct.avifCodecDecodeInput, ptr %9, i32 0, i32 0
  %11 = call i32 @avifArrayCreate(ptr noundef %10, i32 noundef 56, i32 noundef 1)
  %12 = icmp ne i32 %11, 0
  br i1 %12, label %15, label %13

13:                                               ; preds = %7
  %14 = load ptr, ptr %2, align 8
  call void @avifFree(ptr noundef %14)
  store ptr null, ptr %1, align 8
  br label %17

15:                                               ; preds = %7
  %16 = load ptr, ptr %2, align 8
  store ptr %16, ptr %1, align 8
  br label %17

17:                                               ; preds = %15, %13, %6
  %18 = load ptr, ptr %1, align 8
  ret ptr %18
}

; Function Attrs: nounwind uwtable
define internal ptr @avifDecoderDataCreateTile(ptr noundef %0, i32 noundef %1, i32 noundef %2, i32 noundef %3, i8 noundef zeroext %4) #0 {
  %6 = alloca ptr, align 8
  %7 = alloca ptr, align 8
  %8 = alloca i32, align 4
  %9 = alloca i32, align 4
  %10 = alloca i32, align 4
  %11 = alloca i8, align 1
  %12 = alloca ptr, align 8
  store ptr %0, ptr %7, align 8
  store i32 %1, ptr %8, align 4
  store i32 %2, ptr %9, align 4
  store i32 %3, ptr %10, align 4
  store i8 %4, ptr %11, align 1
  %13 = load ptr, ptr %7, align 8
  %14 = getelementptr inbounds nuw %struct.avifDecoderData, ptr %13, i32 0, i32 2
  %15 = call ptr @avifArrayPush(ptr noundef %14)
  store ptr %15, ptr %12, align 8
  %16 = load ptr, ptr %12, align 8
  %17 = icmp eq ptr %16, null
  br i1 %17, label %18, label %19

18:                                               ; preds = %5
  store ptr null, ptr %6, align 8
  br label %72

19:                                               ; preds = %5
  %20 = load i32, ptr %8, align 4
  %21 = load ptr, ptr %12, align 8
  %22 = getelementptr inbounds nuw %struct.avifTile, ptr %21, i32 0, i32 1
  store i32 %20, ptr %22, align 8
  %23 = call ptr @avifImageCreateEmpty()
  %24 = load ptr, ptr %12, align 8
  %25 = getelementptr inbounds nuw %struct.avifTile, ptr %24, i32 0, i32 3
  store ptr %23, ptr %25, align 8
  %26 = load ptr, ptr %12, align 8
  %27 = getelementptr inbounds nuw %struct.avifTile, ptr %26, i32 0, i32 3
  %28 = load ptr, ptr %27, align 8
  %29 = icmp ne ptr %28, null
  br i1 %29, label %31, label %30

30:                                               ; preds = %19
  br label %51

31:                                               ; preds = %19
  %32 = call ptr @avifCodecDecodeInputCreate()
  %33 = load ptr, ptr %12, align 8
  %34 = getelementptr inbounds nuw %struct.avifTile, ptr %33, i32 0, i32 0
  store ptr %32, ptr %34, align 8
  %35 = load ptr, ptr %12, align 8
  %36 = getelementptr inbounds nuw %struct.avifTile, ptr %35, i32 0, i32 0
  %37 = load ptr, ptr %36, align 8
  %38 = icmp ne ptr %37, null
  br i1 %38, label %40, label %39

39:                                               ; preds = %31
  br label %51

40:                                               ; preds = %31
  %41 = load i32, ptr %9, align 4
  %42 = load ptr, ptr %12, align 8
  %43 = getelementptr inbounds nuw %struct.avifTile, ptr %42, i32 0, i32 4
  store i32 %41, ptr %43, align 8
  %44 = load i32, ptr %10, align 4
  %45 = load ptr, ptr %12, align 8
  %46 = getelementptr inbounds nuw %struct.avifTile, ptr %45, i32 0, i32 5
  store i32 %44, ptr %46, align 4
  %47 = load i8, ptr %11, align 1
  %48 = load ptr, ptr %12, align 8
  %49 = getelementptr inbounds nuw %struct.avifTile, ptr %48, i32 0, i32 6
  store i8 %47, ptr %49, align 8
  %50 = load ptr, ptr %12, align 8
  store ptr %50, ptr %6, align 8
  br label %72

51:                                               ; preds = %39, %30
  %52 = load ptr, ptr %12, align 8
  %53 = getelementptr inbounds nuw %struct.avifTile, ptr %52, i32 0, i32 0
  %54 = load ptr, ptr %53, align 8
  %55 = icmp ne ptr %54, null
  br i1 %55, label %56, label %60

56:                                               ; preds = %51
  %57 = load ptr, ptr %12, align 8
  %58 = getelementptr inbounds nuw %struct.avifTile, ptr %57, i32 0, i32 0
  %59 = load ptr, ptr %58, align 8
  call void @avifCodecDecodeInputDestroy(ptr noundef %59)
  br label %60

60:                                               ; preds = %56, %51
  %61 = load ptr, ptr %12, align 8
  %62 = getelementptr inbounds nuw %struct.avifTile, ptr %61, i32 0, i32 3
  %63 = load ptr, ptr %62, align 8
  %64 = icmp ne ptr %63, null
  br i1 %64, label %65, label %69

65:                                               ; preds = %60
  %66 = load ptr, ptr %12, align 8
  %67 = getelementptr inbounds nuw %struct.avifTile, ptr %66, i32 0, i32 3
  %68 = load ptr, ptr %67, align 8
  call void @avifImageDestroy(ptr noundef %68)
  br label %69

69:                                               ; preds = %65, %60
  %70 = load ptr, ptr %7, align 8
  %71 = getelementptr inbounds nuw %struct.avifDecoderData, ptr %70, i32 0, i32 2
  call void @avifArrayPop(ptr noundef %71)
  store ptr null, ptr %6, align 8
  br label %72

72:                                               ; preds = %69, %40, %18
  %73 = load ptr, ptr %6, align 8
  ret ptr %73
}