; Function Attrs: nounwind uwtable
define internal fastcc ptr @avifDecoderDataCreateTile(ptr noundef %0, i32 noundef %1, i32 noundef %2, i32 noundef %3, i8 noundef zeroext %4) unnamed_addr #0 {
  %6 = getelementptr inbounds nuw i8, ptr %0, i64 32
  %7 = tail call ptr @avifArrayPush(ptr noundef nonnull %6) #13
  %8 = icmp eq ptr %7, null
  br i1 %8, label %39, label %9

9:                                                ; preds = %5
  %10 = getelementptr inbounds nuw i8, ptr %7, i64 8
  store i32 %1, ptr %10, align 8
  %11 = tail call ptr @avifImageCreateEmpty() #13
  %12 = getelementptr inbounds nuw i8, ptr %7, i64 24
  store ptr %11, ptr %12, align 8
  %.not = icmp eq ptr %11, null
  br i1 %.not, label %23, label %13

13:                                               ; preds = %9
  %14 = tail call ptr @avifAlloc(i64 noundef 32) #13
  %15 = icmp eq ptr %14, null
  br i1 %15, label %.thread, label %16

16:                                               ; preds = %13
  tail call void @llvm.memset.p0.i64(ptr noundef nonnull align 8 dereferenceable(32) %14, i8 0, i64 32, i1 false)
  %17 = tail call i32 @avifArrayCreate(ptr noundef nonnull %14, i32 noundef 56, i32 noundef 1) #13
  %.not.i = icmp eq i32 %17, 0
  br i1 %.not.i, label %18, label %19

18:                                               ; preds = %16
  tail call void @avifFree(ptr noundef nonnull %14) #13
  br label %.thread

.thread:                                          ; preds = %13, %18
  store ptr null, ptr %7, align 8
  br label %37

19:                                               ; preds = %16
  store ptr %14, ptr %7, align 8
  %20 = getelementptr inbounds nuw i8, ptr %7, i64 32
  store i32 %2, ptr %20, align 8
  %21 = getelementptr inbounds nuw i8, ptr %7, i64 36
  store i32 %3, ptr %21, align 4
  %22 = getelementptr inbounds nuw i8, ptr %7, i64 40
  store i8 %4, ptr %22, align 8
  br label %39

23:                                               ; preds = %9
  %.pr = load ptr, ptr %7, align 8
  %.not24 = icmp eq ptr %.pr, null
  br i1 %.not24, label %.thread32, label %24

24:                                               ; preds = %23
  %25 = getelementptr inbounds nuw i8, ptr %.pr, i64 12
  %26 = load i32, ptr %25, align 4
  %.not9.i = icmp eq i32 %26, 0
  br i1 %.not9.i, label %avifCodecDecodeInputDestroy.exit, label %.lr.ph.i

.lr.ph.i:                                         ; preds = %24, %33
  %27 = phi i32 [ %34, %33 ], [ %26, %24 ]
  %indvars.iv.i = phi i64 [ %indvars.iv.next.i, %33 ], [ 0, %24 ]
  %28 = load ptr, ptr %.pr, align 8
  %29 = getelementptr inbounds nuw %struct.avifDecodeSample, ptr %28, i64 %indvars.iv.i
  %30 = getelementptr inbounds nuw i8, ptr %29, i64 16
  %31 = load i32, ptr %30, align 8
  %.not.i26 = icmp eq i32 %31, 0
  br i1 %.not.i26, label %33, label %32

32:                                               ; preds = %.lr.ph.i
  tail call void @avifRWDataFree(ptr noundef nonnull %29) #13
  %.pre.i = load i32, ptr %25, align 4
  br label %33

33:                                               ; preds = %32, %.lr.ph.i
  %34 = phi i32 [ %27, %.lr.ph.i ], [ %.pre.i, %32 ]
  %indvars.iv.next.i = add nuw nsw i64 %indvars.iv.i, 1
  %35 = zext i32 %34 to i64
  %36 = icmp samesign ult i64 %indvars.iv.next.i, %35
  br i1 %36, label %.lr.ph.i, label %avifCodecDecodeInputDestroy.exit, !llvm.loop !4

avifCodecDecodeInputDestroy.exit:                 ; preds = %33, %24
  tail call void @avifArrayDestroy(ptr noundef nonnull %.pr) #13
  tail call void @avifFree(ptr noundef nonnull %.pr) #13
  br label %37

37:                                               ; preds = %.thread, %avifCodecDecodeInputDestroy.exit
  %.pr31 = load ptr, ptr %12, align 8
  %.not25 = icmp eq ptr %.pr31, null
  br i1 %.not25, label %.thread32, label %38

38:                                               ; preds = %37
  tail call void @avifImageDestroy(ptr noundef nonnull %.pr31) #13
  br label %.thread32

.thread32:                                        ; preds = %23, %38, %37
  tail call void @avifArrayPop(ptr noundef nonnull %6) #13
  br label %39

39:                                               ; preds = %5, %.thread32, %19
  %.0 = phi ptr [ %7, %19 ], [ null, %.thread32 ], [ null, %5 ]
  ret ptr %.0
}